target datalayout = "e-m:e-p270:32:32-p271:32:32-p272:64:64-i64:64-i128:128-f80:128-n8:16:32:64-S128"
target triple = "x86_64-unknown-linux-gnu"

%"class.icu_75::MaybeStackArray" = type <{ ptr, i32, i8, [40 x i8], [3 x i8] }>
%"class.icu_75::UObject" = type { ptr }
%"class.icu_75::UnicodeString" = type { %"class.icu_75::Replaceable", %"union.icu_75::UnicodeString::StackBufferOrFields" }
%"class.icu_75::Replaceable" = type { %"class.icu_75::UObject" }
%"union.icu_75::UnicodeString::StackBufferOrFields" = type { %struct.anon.0, [32 x i8] }
%struct.anon.0 = type { i16, i32, i32, ptr }
%"class.icu_75::numparse::impl::CombinedCurrencyMatcher" = type { %"class.icu_75::numparse::impl::NumberParseMatcher", [4 x i16], %"class.icu_75::UnicodeString", %"class.icu_75::UnicodeString", i8, [8 x %"class.icu_75::UnicodeString"], %"class.icu_75::UnicodeString", %"class.icu_75::UnicodeString", %"class.icu_75::CharString" }
%"class.icu_75::numparse::impl::NumberParseMatcher" = type { ptr }
%"class.icu_75::CharString" = type { %"class.icu_75::MaybeStackArray", i32, [4 x i8] }
%"class.icu_75::numparse::impl::ParsedNumber" = type { %"class.icu_75::number::impl::DecimalQuantity", i32, i32, %"class.icu_75::UnicodeString", %"class.icu_75::UnicodeString", [4 x i16] }
%"class.icu_75::number::impl::DecimalQuantity" = type <{ %"class.icu_75::IFixedDecimal", i8, [3 x i8], i32, i32, i8, i8, [2 x i8], double, i32, i32, i32, i32, %union.anon, i8, i8, [6 x i8] }>
%"class.icu_75::IFixedDecimal" = type { ptr }
%union.anon = type { %struct.anon.1 }
%struct.anon.1 = type { ptr, i32 }

; Function Attrs: mustprogress nounwind uwtable
define linkonce_odr noundef i32 @_ZNK6icu_7513UnicodeString14getShortLengthEv(ptr noundef nonnull align 8 dereferenceable(64) %this) #0 comdat align 2 {
entry:
  %this.addr = alloca ptr, align 8
  store ptr %this, ptr %this.addr, align 8
  %this1 = load ptr, ptr %this.addr, align 8
  %fUnion = getelementptr inbounds %"class.icu_75::UnicodeString", ptr %this1, i32 0, i32 1
  %fLengthAndFlags = getelementptr inbounds %struct.anon.0, ptr %fUnion, i32 0, i32 0
  %0 = load i16, ptr %fLengthAndFlags, align 8
  %conv = sext i16 %0 to i32
  %shr = ashr i32 %conv, 5
  ret i32 %shr
}

; Function Attrs: mustprogress nounwind uwtable
define linkonce_odr noundef signext i8 @_ZNK6icu_7513UnicodeString14hasShortLengthEv(ptr noundef nonnull align 8 dereferenceable(64) %this) #0 comdat align 2 {
entry:
  %this.addr = alloca ptr, align 8
  store ptr %this, ptr %this.addr, align 8
  %this1 = load ptr, ptr %this.addr, align 8
  %fUnion = getelementptr inbounds %"class.icu_75::UnicodeString", ptr %this1, i32 0, i32 1
  %fLengthAndFlags = getelementptr inbounds %struct.anon.0, ptr %fUnion, i32 0, i32 0
  %0 = load i16, ptr %fLengthAndFlags, align 8
  %conv = sext i16 %0 to i32
  %cmp = icmp sge i32 %conv, 0
  %conv2 = zext i1 %cmp to i8
  ret i8 %conv2
}

; Function Attrs: mustprogress uwtable
define linkonce_odr noundef i32 @_ZNK6icu_7513UnicodeString6lengthEv(ptr noundef nonnull align 8 dereferenceable(64) %this) #1 comdat align 2 {
entry:
  %this.addr = alloca ptr, align 8
  store ptr %this, ptr %this.addr, align 8
  %this1 = load ptr, ptr %this.addr, align 8
  %call = call noundef signext i8 @_ZNK6icu_7513UnicodeString14hasShortLengthEv(ptr noundef nonnull align 8 dereferenceable(64) %this1)
  %tobool = icmp ne i8 %call, 0
  br i1 %tobool, label %cond.true, label %cond.false

cond.true:                                        ; preds = %entry
  %call2 = call noundef i32 @_ZNK6icu_7513UnicodeString14getShortLengthEv(ptr noundef nonnull align 8 dereferenceable(64) %this1)
  br label %cond.end

cond.false:                                       ; preds = %entry
  %fUnion = getelementptr inbounds %"class.icu_75::UnicodeString", ptr %this1, i32 0, i32 1
  %fLength = getelementptr inbounds %struct.anon.0, ptr %fUnion, i32 0, i32 1
  %0 = load i32, ptr %fLength, align 4
  br label %cond.end

cond.end:                                         ; preds = %cond.false, %cond.true
  %cond = phi i32 [ %call2, %cond.true ], [ %0, %cond.false ]
  ret i32 %cond
}

; Function Attrs: mustprogress nounwind uwtable
define linkonce_odr noundef signext i8 @_ZNK6icu_7513UnicodeString7isEmptyEv(ptr noundef nonnull align 8 dereferenceable(64) %this) #0 comdat align 2 {
entry:
  %this.addr = alloca ptr, align 8
  store ptr %this, ptr %this.addr, align 8
  %this1 = load ptr, ptr %this.addr, align 8
  %fUnion = getelementptr inbounds %"class.icu_75::UnicodeString", ptr %this1, i32 0, i32 1
  %fLengthAndFlags = getelementptr inbounds %struct.anon.0, ptr %fUnion, i32 0, i32 0
  %0 = load i16, ptr %fLengthAndFlags, align 8
  %conv = sext i16 %0 to i32
  %shr = ashr i32 %conv, 5
  %cmp = icmp eq i32 %shr, 0
  %conv2 = zext i1 %cmp to i8
  ret i8 %conv2
}

; Function Attrs: mustprogress uwtable
define noundef zeroext i1 @_ZNK6icu_758numparse4impl23CombinedCurrencyMatcher5matchERNS_13StringSegmentERNS1_12ParsedNumberER10UErrorCode(ptr noundef nonnull align 8 dereferenceable(856) %this, ptr noundef nonnull align 8 dereferenceable(17) %segment, ptr noundef nonnull align 8 dereferenceable(216) %result, ptr noundef nonnull align 4 dereferenceable(4) %status) unnamed_addr #1 align 2 {
entry:
  %retval = alloca i1, align 1
  %this.addr = alloca ptr, align 8
  %segment.addr = alloca ptr, align 8
  %result.addr = alloca ptr, align 8
  %status.addr = alloca ptr, align 8
  %initialOffset = alloca i32, align 4
  %maybeMore = alloca i8, align 1
  %overlap = alloca i32, align 4
  %overlap33 = alloca i32, align 4
  store ptr %this, ptr %this.addr, align 8
  store ptr %segment, ptr %segment.addr, align 8
  store ptr %result, ptr %result.addr, align 8
  store ptr %status, ptr %status.addr, align 8
  %this1 = load ptr, ptr %this.addr, align 8
  %0 = load ptr, ptr %result.addr, align 8
  %currencyCode = getelementptr inbounds %"class.icu_75::numparse::impl::ParsedNumber", ptr %0, i32 0, i32 5
  %arrayidx = getelementptr inbounds [4 x i16], ptr %currencyCode, i64 0, i64 0
  %1 = load i16, ptr %arrayidx, align 8
  %conv = zext i16 %1 to i32
  %cmp = icmp ne i32 %conv, 0
  br i1 %cmp, label %if.then, label %if.end

if.then:                                          ; preds = %entry
  store i1 false, ptr %retval, align 1
  br label %return

if.end:                                           ; preds = %entry
  %2 = load ptr, ptr %segment.addr, align 8
  %call = call noundef i32 @_ZNK6icu_7513StringSegment9getOffsetEv(ptr noundef nonnull align 8 dereferenceable(17) %2)
  store i32 %call, ptr %initialOffset, align 4
  store i8 0, ptr %maybeMore, align 1
  %3 = load ptr, ptr %result.addr, align 8
  %call2 = call noundef zeroext i1 @_ZNK6icu_758numparse4impl12ParsedNumber10seenNumberEv(ptr noundef nonnull align 8 dereferenceable(216) %3)
  br i1 %call2, label %land.lhs.true, label %if.end15

land.lhs.true:                                    ; preds = %if.end
  %beforeSuffixInsert = getelementptr inbounds %"class.icu_75::numparse::impl::CombinedCurrencyMatcher", ptr %this1, i32 0, i32 7
  %call3 = call noundef signext i8 @_ZNK6icu_7513UnicodeString7isEmptyEv(ptr noundef nonnull align 8 dereferenceable(64) %beforeSuffixInsert)
  %tobool = icmp ne i8 %call3, 0
  br i1 %tobool, label %if.end15, label %if.then4

if.then4:                                         ; preds = %land.lhs.true
  %4 = load ptr, ptr %segment.addr, align 8
  %beforeSuffixInsert5 = getelementptr inbounds %"class.icu_75::numparse::impl::CombinedCurrencyMatcher", ptr %this1, i32 0, i32 7
  %call6 = call noundef i32 @_ZN6icu_7513StringSegment21getCommonPrefixLengthERKNS_13UnicodeStringE(ptr noundef nonnull align 8 dereferenceable(17) %4, ptr noundef nonnull align 8 dereferenceable(64) %beforeSuffixInsert5)
  store i32 %call6, ptr %overlap, align 4
  %5 = load i32, ptr %overlap, align 4
  %beforeSuffixInsert7 = getelementptr inbounds %"class.icu_75::numparse::impl::CombinedCurrencyMatcher", ptr %this1, i32 0, i32 7
  %call8 = call noundef i32 @_ZNK6icu_7513UnicodeString6lengthEv(ptr noundef nonnull align 8 dereferenceable(64) %beforeSuffixInsert7)
  %cmp9 = icmp eq i32 %5, %call8
  br i1 %cmp9, label %if.then10, label %if.end11

if.then10:                                        ; preds = %if.then4
  %6 = load ptr, ptr %segment.addr, align 8
  %7 = load i32, ptr %overlap, align 4
  call void @_ZN6icu_7513StringSegment12adjustOffsetEi(ptr noundef nonnull align 8 dereferenceable(17) %6, i32 noundef %7)
  br label %if.end11

if.end11:                                         ; preds = %if.then10, %if.then4
  %8 = load i8, ptr %maybeMore, align 1
  %tobool12 = trunc i8 %8 to i1
  br i1 %tobool12, label %lor.end, label %lor.rhs

lor.rhs:                                          ; preds = %if.end11
  %9 = load i32, ptr %overlap, align 4
  %10 = load ptr, ptr %segment.addr, align 8
  %call13 = call noundef i32 @_ZNK6icu_7513StringSegment6lengthEv(ptr noundef nonnull align 8 dereferenceable(17) %10)
  %cmp14 = icmp eq i32 %9, %call13
  br label %lor.end

lor.end:                                          ; preds = %lor.rhs, %if.end11
  %11 = phi i1 [ true, %if.end11 ], [ %cmp14, %lor.rhs ]
  %frombool = zext i1 %11 to i8
  store i8 %frombool, ptr %maybeMore, align 1
  br label %if.end15

if.end15:                                         ; preds = %lor.end, %land.lhs.true, %if.end
  %12 = load i8, ptr %maybeMore, align 1
  %tobool16 = trunc i8 %12 to i1
  br i1 %tobool16, label %lor.end19, label %lor.rhs17

lor.rhs17:                                        ; preds = %if.end15
  %13 = load ptr, ptr %segment.addr, align 8
  %14 = load ptr, ptr %result.addr, align 8
  %15 = load ptr, ptr %status.addr, align 8
  %call18 = call noundef zeroext i1 @_ZNK6icu_758numparse4impl23CombinedCurrencyMatcher13matchCurrencyERNS_13StringSegmentERNS1_12ParsedNumberER10UErrorCode(ptr noundef nonnull align 8 dereferenceable(856) %this1, ptr noundef nonnull align 8 dereferenceable(17) %13, ptr noundef nonnull align 8 dereferenceable(216) %14, ptr noundef nonnull align 4 dereferenceable(4) %15)
  br label %lor.end19

lor.end19:                                        ; preds = %lor.rhs17, %if.end15
  %16 = phi i1 [ true, %if.end15 ], [ %call18, %lor.rhs17 ]
  %frombool20 = zext i1 %16 to i8
  store i8 %frombool20, ptr %maybeMore, align 1
  %17 = load ptr, ptr %result.addr, align 8
  %currencyCode21 = getelementptr inbounds %"class.icu_75::numparse::impl::ParsedNumber", ptr %17, i32 0, i32 5
  %arrayidx22 = getelementptr inbounds [4 x i16], ptr %currencyCode21, i64 0, i64 0
  %18 = load i16, ptr %arrayidx22, align 8
  %conv23 = zext i16 %18 to i32
  %cmp24 = icmp eq i32 %conv23, 0
  br i1 %cmp24, label %if.then25, label %if.end27

if.then25:                                        ; preds = %lor.end19
  %19 = load ptr, ptr %segment.addr, align 8
  %20 = load i32, ptr %initialOffset, align 4
  call void @_ZN6icu_7513StringSegment9setOffsetEi(ptr noundef nonnull align 8 dereferenceable(17) %19, i32 noundef %20)
  %21 = load i8, ptr %maybeMore, align 1
  %tobool26 = trunc i8 %21 to i1
  store i1 %tobool26, ptr %retval, align 1
  br label %return

if.end27:                                         ; preds = %lor.end19
  %22 = load ptr, ptr %result.addr, align 8
  %call28 = call noundef zeroext i1 @_ZNK6icu_758numparse4impl12ParsedNumber10seenNumberEv(ptr noundef nonnull align 8 dereferenceable(216) %22)
  br i1 %call28, label %if.end47, label %land.lhs.true29

land.lhs.true29:                                  ; preds = %if.end27
  %afterPrefixInsert = getelementptr inbounds %"class.icu_75::numparse::impl::CombinedCurrencyMatcher", ptr %this1, i32 0, i32 6
  %call30 = call noundef signext i8 @_ZNK6icu_7513UnicodeString7isEmptyEv(ptr noundef nonnull align 8 dereferenceable(64) %afterPrefixInsert)
  %tobool31 = icmp ne i8 %call30, 0
  br i1 %tobool31, label %if.end47, label %if.then32

if.then32:                                        ; preds = %land.lhs.true29
  %23 = load ptr, ptr %segment.addr, align 8
  %afterPrefixInsert34 = getelementptr inbounds %"class.icu_75::numparse::impl::CombinedCurrencyMatcher", ptr %this1, i32 0, i32 6
  %call35 = call noundef i32 @_ZN6icu_7513StringSegment21getCommonPrefixLengthERKNS_13UnicodeStringE(ptr noundef nonnull align 8 dereferenceable(17) %23, ptr noundef nonnull align 8 dereferenceable(64) %afterPrefixInsert34)
  store i32 %call35, ptr %overlap33, align 4
  %24 = load i32, ptr %overlap33, align 4
  %afterPrefixInsert36 = getelementptr inbounds %"class.icu_75::numparse::impl::CombinedCurrencyMatcher", ptr %this1, i32 0, i32 6
  %call37 = call noundef i32 @_ZNK6icu_7513UnicodeString6lengthEv(ptr noundef nonnull align 8 dereferenceable(64) %afterPrefixInsert36)
  %cmp38 = icmp eq i32 %24, %call37
  br i1 %cmp38, label %if.then39, label %if.end40

if.then39:                                        ; preds = %if.then32
  %25 = load ptr, ptr %segment.addr, align 8
  %26 = load i32, ptr %overlap33, align 4
  call void @_ZN6icu_7513StringSegment12adjustOffsetEi(ptr noundef nonnull align 8 dereferenceable(17) %25, i32 noundef %26)
  br label %if.end40

if.end40:                                         ; preds = %if.then39, %if.then32
  %27 = load i8, ptr %maybeMore, align 1
  %tobool41 = trunc i8 %27 to i1
  br i1 %tobool41, label %lor.end45, label %lor.rhs42

lor.rhs42:                                        ; preds = %if.end40
  %28 = load i32, ptr %overlap33, align 4
  %29 = load ptr, ptr %segment.addr, align 8
  %call43 = call noundef i32 @_ZNK6icu_7513StringSegment6lengthEv(ptr noundef nonnull align 8 dereferenceable(17) %29)
  %cmp44 = icmp eq i32 %28, %call43
  br label %lor.end45

lor.end45:                                        ; preds = %lor.rhs42, %if.end40
  %30 = phi i1 [ true, %if.end40 ], [ %cmp44, %lor.rhs42 ]
  %frombool46 = zext i1 %30 to i8
  store i8 %frombool46, ptr %maybeMore, align 1
  br label %if.end47

if.end47:                                         ; preds = %lor.end45, %land.lhs.true29, %if.end27
  %31 = load i8, ptr %maybeMore, align 1
  %tobool48 = trunc i8 %31 to i1
  store i1 %tobool48, ptr %retval, align 1
  br label %return

return:                                           ; preds = %if.end47, %if.then25, %if.then
  %32 = load i1, ptr %retval, align 1
  ret i1 %32
}