; Function Attrs: mustprogress uwtable
define noundef zeroext i1 @_ZNK6icu_758numparse4impl23CombinedCurrencyMatcher5matchERNS_13StringSegmentERNS1_12ParsedNumberER10UErrorCode(ptr noundef nonnull align 8 dereferenceable(856) %this, ptr noundef nonnull align 8 dereferenceable(17) %segment, ptr noundef nonnull align 8 dereferenceable(216) %result, ptr noundef nonnull align 4 dereferenceable(4) %status) unnamed_addr #1 align 2 {
entry:
  %currencyCode = getelementptr inbounds i8, ptr %result, i64 208
  %0 = load i16, ptr %currencyCode, align 8
  %cmp.not = icmp eq i16 %0, 0
  br i1 %cmp.not, label %if.end, label %return

if.end:                                           ; preds = %entry
  %call = tail call noundef i32 @_ZNK6icu_7513StringSegment9getOffsetEv(ptr noundef nonnull align 8 dereferenceable(17) %segment)
  %call2 = tail call noundef zeroext i1 @_ZNK6icu_758numparse4impl12ParsedNumber10seenNumberEv(ptr noundef nonnull align 8 dereferenceable(216) %result)
  br i1 %call2, label %land.lhs.true, label %lor.rhs17

land.lhs.true:                                    ; preds = %if.end
  %fUnion.i = getelementptr inbounds i8, ptr %this, i64 736
  %1 = load i16, ptr %fUnion.i, align 8
  %cmp.i = icmp ugt i16 %1, 31
  br i1 %cmp.i, label %if.then4, label %lor.rhs17

if.then4:                                         ; preds = %land.lhs.true
  %beforeSuffixInsert = getelementptr inbounds i8, ptr %this, i64 728
  %call6 = tail call noundef i32 @_ZN6icu_7513StringSegment21getCommonPrefixLengthERKNS_13UnicodeStringE(ptr noundef nonnull align 8 dereferenceable(17) %segment, ptr noundef nonnull align 8 dereferenceable(64) %beforeSuffixInsert)
  %2 = load i16, ptr %fUnion.i, align 8
  %cmp.i.i = icmp slt i16 %2, 0
  %3 = ashr i16 %2, 5
  %shr.i.i = sext i16 %3 to i32
  %fLength.i = getelementptr inbounds i8, ptr %this, i64 740
  %4 = load i32, ptr %fLength.i, align 4
  %cond.i = select i1 %cmp.i.i, i32 %4, i32 %shr.i.i
  %cmp9 = icmp eq i32 %call6, %cond.i
  br i1 %cmp9, label %if.then10, label %lor.rhs

if.then10:                                        ; preds = %if.then4
  tail call void @_ZN6icu_7513StringSegment12adjustOffsetEi(ptr noundef nonnull align 8 dereferenceable(17) %segment, i32 noundef %call6)
  br label %lor.rhs

lor.rhs:                                          ; preds = %if.then4, %if.then10
  %call13 = tail call noundef i32 @_ZNK6icu_7513StringSegment6lengthEv(ptr noundef nonnull align 8 dereferenceable(17) %segment)
  %cmp14 = icmp eq i32 %call6, %call13
  br i1 %cmp14, label %lor.end19, label %lor.rhs17

lor.rhs17:                                        ; preds = %land.lhs.true, %if.end, %lor.rhs
  %call18 = tail call noundef zeroext i1 @_ZNK6icu_758numparse4impl23CombinedCurrencyMatcher13matchCurrencyERNS_13StringSegmentERNS1_12ParsedNumberER10UErrorCode(ptr noundef nonnull align 8 dereferenceable(856) %this, ptr noundef nonnull align 8 dereferenceable(17) %segment, ptr noundef nonnull align 8 dereferenceable(216) %result, ptr noundef nonnull align 4 dereferenceable(4) %status)
  br label %lor.end19

lor.end19:                                        ; preds = %lor.rhs17, %lor.rhs
  %5 = phi i1 [ true, %lor.rhs ], [ %call18, %lor.rhs17 ]
  %6 = load i16, ptr %currencyCode, align 8
  %cmp24 = icmp eq i16 %6, 0
  br i1 %cmp24, label %if.then25, label %if.end27

if.then25:                                        ; preds = %lor.end19
  tail call void @_ZN6icu_7513StringSegment9setOffsetEi(ptr noundef nonnull align 8 dereferenceable(17) %segment, i32 noundef %call)
  br label %return

if.end27:                                         ; preds = %lor.end19
  %call28 = tail call noundef zeroext i1 @_ZNK6icu_758numparse4impl12ParsedNumber10seenNumberEv(ptr noundef nonnull align 8 dereferenceable(216) %result)
  br i1 %call28, label %return, label %land.lhs.true29

land.lhs.true29:                                  ; preds = %if.end27
  %fUnion.i21 = getelementptr inbounds i8, ptr %this, i64 672
  %7 = load i16, ptr %fUnion.i21, align 8
  %cmp.i22 = icmp ugt i16 %7, 31
  br i1 %cmp.i22, label %if.then32, label %return

if.then32:                                        ; preds = %land.lhs.true29
  %afterPrefixInsert = getelementptr inbounds i8, ptr %this, i64 664
  %call35 = tail call noundef i32 @_ZN6icu_7513StringSegment21getCommonPrefixLengthERKNS_13UnicodeStringE(ptr noundef nonnull align 8 dereferenceable(17) %segment, ptr noundef nonnull align 8 dereferenceable(64) %afterPrefixInsert)
  %8 = load i16, ptr %fUnion.i21, align 8
  %cmp.i.i25 = icmp slt i16 %8, 0
  %9 = ashr i16 %8, 5
  %shr.i.i26 = sext i16 %9 to i32
  %fLength.i27 = getelementptr inbounds i8, ptr %this, i64 676
  %10 = load i32, ptr %fLength.i27, align 4
  %cond.i28 = select i1 %cmp.i.i25, i32 %10, i32 %shr.i.i26
  %cmp38 = icmp eq i32 %call35, %cond.i28
  br i1 %cmp38, label %if.then39, label %if.end40

if.then39:                                        ; preds = %if.then32
  tail call void @_ZN6icu_7513StringSegment12adjustOffsetEi(ptr noundef nonnull align 8 dereferenceable(17) %segment, i32 noundef %call35)
  br label %if.end40

if.end40:                                         ; preds = %if.then39, %if.then32
  br i1 %5, label %return, label %lor.rhs42

lor.rhs42:                                        ; preds = %if.end40
  %call43 = tail call noundef i32 @_ZNK6icu_7513StringSegment6lengthEv(ptr noundef nonnull align 8 dereferenceable(17) %segment)
  %cmp44 = icmp eq i32 %call35, %call43
  br label %return

return:                                           ; preds = %if.end27, %land.lhs.true29, %lor.rhs42, %if.end40, %entry, %if.then25
  %retval.0 = phi i1 [ %5, %if.then25 ], [ false, %entry ], [ %5, %if.end27 ], [ %5, %land.lhs.true29 ], [ true, %if.end40 ], [ %cmp44, %lor.rhs42 ]
  ret i1 %retval.0
}